ccopy_reg
_reconstructor
p0
(ccompas_fea.structure.structure
Structure
p1
c__builtin__
object
p2
Ntp3
Rp4
(dp5
S'constraints'
p6
(dp7
sS'displacements'
p8
(dp9
S'pinned'
p10
g0
(ccompas_fea.structure.displacement
PinnedDisplacement
p11
g2
Ntp12
Rp13
(dp14
S'index'
p15
I0
sS'__name__'
p16
S'PinnedDisplacement'
p17
sS'name'
p18
g10
sS'nodes'
p19
S'supports'
p20
sS'components'
p21
(dp22
S'z'
p23
I0
sS'xx'
p24
NsS'zz'
p25
NsS'yy'
p26
NsS'y'
p27
I0
sS'x'
p28
I0
ssS'axes'
p29
S'global'
p30
sbssS'elements'
p31
(dp32
I0
g0
(ccompas_fea.structure.element
TrussElement
p33
g2
Ntp34
Rp35
(dp36
S'__name__'
p37
S'TrussElement'
p38
sS'nodes'
p39
(lp40
I0
aI1
asS'number'
p41
I0
sS'thermal'
p42
I00
sS'axes'
p43
(dp44
S'ey'
p45
NsS'ez'
p46
(lp47
F-5.0413581418578488
aF-10.505345109979233
aF0.0
asS'ex'
p48
NssS'element_property'
p49
S'property'
p50
sbsI1
g0
(g33
g2
Ntp51
Rp52
(dp53
g37
g38
sg39
(lp54
I2
aI1
asg41
I1
sg42
I00
sg43
(dp55
g45
Nsg46
(lp56
F6.8224367668255939
aF-8.3922009786615721
aF0.0
asg48
Nssg49
g50
sbsI2
g0
(g33
g2
Ntp57
Rp58
(dp59
g37
g38
sg39
(lp60
I3
aI4
asg41
I2
sg42
I00
sg43
(dp61
g45
Nsg46
(lp62
F17.21149725232911
aF-9.0885794071704833
aF0.0
asg48
Nssg49
g50
sbsI3
g0
(g33
g2
Ntp63
Rp64
(dp65
g37
g38
sg39
(lp66
I5
aI3
asg41
I3
sg42
I00
sg43
(dp67
g45
Nsg46
(lp68
F-15.791406719958722
aF0.73844707683260147
aF0.0
asg48
Nssg49
g50
sbsI4
g0
(g33
g2
Ntp69
Rp70
(dp71
g37
g38
sg39
(lp72
I5
aI4
asg41
I4
sg42
I00
sg43
(dp73
g45
Nsg46
(lp74
F1.4200905323703878
aF-8.3501323303378818
aF0.0
asg48
Nssg49
g50
sbsI5
g0
(g33
g2
Ntp75
Rp76
(dp77
g37
g38
sg39
(lp78
I2
aI5
asg41
I5
sg42
I00
sg43
(dp79
g45
Nsg46
(lp80
F-15.351435880818787
aF5.2669379057778141
aF0.0
asg48
Nssg49
g50
sbsI6
g0
(g33
g2
Ntp81
Rp82
(dp83
g37
g38
sg39
(lp84
I4
aI2
asg41
I6
sg42
I00
sg43
(dp85
g45
Nsg46
(lp86
F13.931345348448399
aF3.0831944245600678
aF0.0
asg48
Nssg49
g50
sbsI7
g0
(g33
g2
Ntp87
Rp88
(dp89
g37
g38
sg39
(lp90
I6
aI4
asg41
I7
sg42
I00
sg43
(dp91
g45
Nsg46
(lp92
F-11.546511257389898
aF6.2146397532376429
aF0.0
asg48
Nssg49
g50
sbsI8
g0
(g33
g2
Ntp93
Rp94
(dp95
g37
g38
sg39
(lp96
I0
aI7
asg41
I8
sg42
I00
sg43
(dp97
g45
Nsg46
(lp98
F2.3412766382835564
aF-3.8625312638262361
aF0.0
asg48
Nssg49
g50
sbsI9
g0
(g33
g2
Ntp99
Rp100
(dp101
g37
g38
sg39
(lp102
I1
aI6
asg41
I9
sg42
I00
sg43
(dp103
g45
Nsg46
(lp104
F-9.2072708578840938
aF-0.90563319913613904
aF0.0
asg48
Nssg49
g50
sbsI10
g0
(g33
g2
Ntp105
Rp106
(dp107
g37
g38
sg39
(lp108
I6
aI2
asg41
I10
sg42
I00
sg43
(dp109
g45
Nsg46
(lp110
F2.3848340910585
aF9.2978341777977107
aF0.0
asg48
Nssg49
g50
sbsI11
g0
(g33
g2
Ntp111
Rp112
(dp113
g37
g38
sg39
(lp114
I2
aI0
asg41
I11
sg42
I00
sg43
(dp115
g45
Nsg46
(lp116
F11.863794908683442
aF2.1131441313176609
aF0.0
asg48
Nssg49
g50
sbsI12
g0
(g33
g2
Ntp117
Rp118
(dp119
g37
g38
sg39
(lp120
I1
aI7
asg41
I12
sg42
I00
sg43
(dp121
g45
Nsg46
(lp122
F7.3826347801414052
aF6.6428138461529969
aF0.0
asg48
Nssg49
g50
sbssS'element_index'
p123
(dp124
S'-12.257,10.390,0.000'
p125
I4
sS'11.728,6.158,0.000'
p126
I0
sS'5.796,5.102,0.000'
p127
I1
sS'4.604,0.453,0.000'
p128
I9
sS'15.419,9.480,0.000'
p129
I8
sS'1.192,4.649,0.000'
p130
I10
sS'-20.152,10.759,0.000'
p131
I2
sS'8.317,10.354,0.000'
p132
I11
sS'12.899,4.227,0.000'
p133
I12
sS'-4.581,7.756,0.000'
p134
I6
sS'-20.862,14.934,0.000'
p135
I3
sS'-5.773,3.107,0.000'
p136
I7
sS'-5.291,11.931,0.000'
p137
I5
ssS'element_properties'
p138
(dp139
g50
g0
(ccompas_fea.structure.element_properties
ElementProperties
p140
g2
Ntp141
Rp142
(dp143
g15
I0
sS'__name__'
p144
S'ElementProperties'
p145
sS'name'
p146
g50
sS'material'
p147
S'steel'
p148
sS'section'
p149
S'section'
p150
sS'elset'
p151
S'trusses'
p152
sS'elements'
p153
NsS'rebar'
p154
(dp155
sbssS'interactions'
p156
(dp157
sS'loads'
p158
(dp159
S'gravity'
p160
g0
(ccompas_fea.structure.load
GravityLoad
p161
g2
Ntp162
Rp163
(dp164
g15
I1
sS'__name__'
p165
S'GravityLoad'
p166
sS'name'
p167
g160
sS'axes'
p168
S'global'
p169
sS'components'
p170
(dp171
S'z'
p172
I0
sS'y'
p173
I1
sS'x'
p174
F0.0
ssS'nodes'
p175
(lp176
sS'elements'
p177
S'trusses'
p178
sS'attr_list'
p179
(lp180
S'name'
p181
aS'axes'
p182
aS'components'
p183
aS'nodes'
p184
aS'elements'
p185
aS'g'
p186
asS'g'
p187
F-9.8100000000000005
sbsS'pointloads'
p188
g0
(ccompas_fea.structure.load
PointLoad
p189
g2
Ntp190
Rp191
(dp192
g15
I0
sg165
S'PointLoad'
p193
sg167
g188
sg168
S'global'
p194
sg170
(dp195
S'z'
p196
I0
sS'xx'
p197
I0
sS'zz'
p198
I0
sS'yy'
p199
I0
sS'y'
p200
I-50000
sS'x'
p201
I0
ssg175
S'loads'
p202
sg177
(lp203
sg179
(lp204
g181
ag182
ag183
ag184
ag185
asbssS'materials'
p205
(dp206
S'steel'
p207
g0
(ccompas_fea.structure.material
Steel
p208
g2
Ntp209
Rp210
(dp211
g15
I0
sS'__name__'
p212
S'Steel'
p213
sS'name'
p214
g207
sS'attr_list'
p215
(lp216
S'name'
p217
aS'fy'
p218
aS'fu'
p219
aS'eu'
p220
aS'ep'
p221
aS'E'
p222
aS'v'
p223
aS'G'
p224
aS'p'
p225
aS'tension'
p226
aS'compression'
p227
asS'fy'
p228
F355000000.0
sS'fu'
p229
F355000000.0
sS'eu'
p230
F0.20000000000000001
sS'ep'
p231
F0.19830952380952382
sS'E'
p232
(dp233
S'E'
p234
F210000000000.0
ssS'v'
p235
(dp236
S'v'
p237
F0.29999999999999999
ssS'G'
p238
(dp239
S'G'
p240
F80769230769.230774
ssS'p'
p241
I7850
sS'tension'
p242
(dp243
S'e'
p244
(lp245
I0
aF0.19830952380952382
asS'f'
p246
(lp247
F355000000.0
aF355000000.0
assS'compression'
p248
(dp249
S'e'
p250
(lp251
I0
aF-0.19830952380952382
asS'f'
p252
(lp253
F-355000000.0
aF-355000000.0
assbssS'misc'
p254
(dp255
sS'name'
p256
S'example_truss'
p257
sS'nodes'
p258
(dp259
I0
g0
(ccompas_fea.structure.node
Node
p260
g2
Ntp261
Rp262
(dp263
S'__name__'
p264
S'Node'
p265
sS'key'
p266
I0
sS'x'
p267
F14.248628999741943
sS'y'
p268
F11.410978309115372
sS'z'
p269
F0.0
sS'ex'
p270
(lp271
I1
aI0
aI0
asS'ey'
p272
(lp273
I0
aI1
aI0
asS'ez'
p274
(lp275
I0
aI0
aI1
asS'mass'
p276
NsbsI1
g0
(g260
g2
Ntp277
Rp278
(dp279
g264
g265
sg266
I1
sg267
F9.2072708578840938
sg268
F0.90563319913613904
sg269
F0.0
sg270
g271
sg272
g273
sg274
g275
sg276
NsbsI2
g0
(g260
g2
Ntp280
Rp281
(dp282
g264
g265
sg266
I2
sg267
F2.3848340910585
sg268
F9.2978341777977107
sg269
F0.0
sg270
g271
sg272
g273
sg274
g275
sg276
NsbsI3
g0
(g260
g2
Ntp283
Rp284
(dp285
g264
g265
sg266
I3
sg267
F-28.758008509719009
sg268
F15.303219160408126
sg269
F0.0
sg270
g271
sg272
g273
sg274
g275
sg276
NsbsI4
g0
(g260
g2
Ntp286
Rp287
(dp288
g264
g265
sg266
I4
sg267
F-11.546511257389898
sg268
F6.2146397532376429
sg269
F0.0
sg270
g271
sg272
g273
sg274
g275
sg276
NsbsI5
g0
(g260
g2
Ntp289
Rp290
(dp291
g264
g265
sg266
I5
sg267
F-12.966601789760286
sg268
F14.564772083575525
sg269
F0.0
sg270
g271
sg272
g273
sg274
g275
sg276
NsbsI6
g0
(g260
g2
Ntp292
Rp293
(dp294
g264
g265
sg266
I6
sg267
F0.0
sg268
F0.0
sg269
F0.0
sg270
g271
sg272
g273
sg274
g275
sg276
NsbsI7
g0
(g260
g2
Ntp295
Rp296
(dp297
g264
g265
sg266
I7
sg267
F16.589905638025499
sg268
F7.5484470452891355
sg269
F0.0
sg270
g271
sg272
g273
sg274
g275
sg276
NsbssS'node_index'
p298
(dp299
S'-12.967,14.565,0.000'
p300
I5
sS'14.249,11.411,0.000'
p301
I0
sS'-28.758,15.303,0.000'
p302
I3
sS'2.385,9.298,0.000'
p303
I2
sS'16.590,7.548,0.000'
p304
I7
sS'-11.547,6.215,0.000'
p305
I4
sS'9.207,0.906,0.000'
p306
I1
sS'0.000,0.000,0.000'
p307
I6
ssS'path'
p308
S'C:/Temp/'
p309
sS'results'
p310
(dp311
S'loads'
p312
(dp313
S'nodal'
p314
(dp315
S'ux'
p316
(dp317
I0
F-0.020757166668772701
sI1
F-1.5781073960989799e-31
sI2
F-0.0221565887331963
sI3
F-0.078940473496913896
sI4
F-0.013598629273474201
sI5
F-0.060487721115350702
sI6
F-3.5340755704788198e-32
sI7
F-0.0097923474386334402
ssS'rfm'
p318
(dp319
I0
F0.0
sI1
F224592.453125
sI2
F0.0
sI3
F0.0
sI4
F0.0
sI5
F0.0
sI6
F337920.3125
sI7
F0.0
ssS'cfz'
p320
(dp321
I0
F0.0
sI1
F0.0
sI2
F0.0
sI3
F0.0
sI4
F0.0
sI5
F0.0
sI6
F0.0
sI7
F0.0
ssS'uy'
p322
(dp323
I0
F0.0041873161680996401
sI1
F1.90809863548074e-31
sI2
F-0.0014726014342159
sI3
F-0.221854522824287
sI4
F-0.060615997761488002
sI5
F-0.070962555706500993
sI6
F-1.48746032472967e-31
sI7
F0.010837486945092701
ssS'cfx'
p324
(dp325
I0
F0.0
sI1
F0.0
sI2
F0.0
sI3
F0.0
sI4
F0.0
sI5
F0.0
sI6
F0.0
sI7
F0.0
ssS'um'
p326
(dp327
I0
F0.0211753062903881
sI1
F0.0
sI2
F0.0222054719924927
sI3
F0.23548041284084301
sI4
F0.062122635543346398
sI5
F0.093244023621082306
sI6
F0.0
sI7
F0.014606203883886301
ssS'cfy'
p328
(dp329
I0
F-75000.0
sI1
F0.0
sI2
F0.0
sI3
F-75000.0
sI4
F0.0
sI5
F0.0
sI6
F0.0
sI7
F0.0
ssS'uz'
p330
(dp331
I0
F0.0
sI1
F0.0
sI2
F0.0
sI3
F0.0
sI4
F0.0
sI5
F0.0
sI6
F0.0
sI7
F0.0
ssS'cfm'
p332
(dp333
I0
F75000.0
sI1
F0.0
sI2
F0.0
sI3
F75000.0
sI4
F0.0
sI5
F0.0
sI6
F0.0
sI7
F0.0
ssS'rfz'
p334
(dp335
I0
F0.0
sI1
F-0.0
sI2
F0.0
sI3
F0.0
sI4
F0.0
sI5
F0.0
sI6
F-0.0
sI7
F0.0
ssS'rfy'
p336
(dp337
I0
F0.0
sI1
F-105850.8828125
sI2
F0.0
sI3
F0.0
sI4
F0.0
sI5
F0.0
sI6
F273774.96875
sI7
F0.0
ssS'rfx'
p338
(dp339
I0
F0.0
sI1
F198084.234375
sI2
F0.0
sI3
F0.0
sI4
F0.0
sI5
F0.0
sI6
F-198084.328125
sI7
F0.0
sssS'info'
p340
(dp341
S'description'
p342
S'Increment      1: Step Time =    1.000'
p343
ssS'element'
p344
(dp345
S'sminp'
p346
(dp347
I0
(dp348
S'ip1_sp0'
p349
F-93530320.0
ssI1
(dp350
S'ip1_sp0'
p351
F0.0
ssI2
(dp352
S'ip1_sp0'
p353
F-180659280.0
ssI3
(dp354
S'ip1_sp0'
p355
F0.0
ssI4
(dp356
S'ip1_sp0'
p357
F-54632716.0
ssI5
(dp358
S'ip1_sp0'
p359
F0.0
ssI6
(dp360
S'ip1_sp0'
p361
F0.0
ssI7
(dp362
S'ip1_sp0'
p363
F-266288736.0
ssI8
(dp364
S'ip1_sp0'
p365
F0.0
ssI9
(dp366
S'ip1_sp0'
p367
F0.0
ssI10
(dp368
S'ip1_sp0'
p369
F-151189440.0
ssI11
(dp370
S'ip1_sp0'
p371
F0.0
ssI12
(dp372
S'ip1_sp0'
p373
F-442126.96875
sssS'smises'
p374
(dp375
I0
(dp376
S'ip1_sp0'
p377
F93530320.0
ssI1
(dp378
S'ip1_sp0'
p379
F249337920.0
ssI2
(dp380
S'ip1_sp0'
p381
F180659280.0
ssI3
(dp382
S'ip1_sp0'
p383
F160871072.0
ssI4
(dp384
S'ip1_sp0'
p385
F54632716.0
ssI5
(dp386
S'ip1_sp0'
p387
F179696272.0
ssI6
(dp388
S'ip1_sp0'
p389
F66912000.0
ssI7
(dp390
S'ip1_sp0'
p391
F266288736.0
ssI8
(dp392
S'ip1_sp0'
p393
F630500.4375
ssI9
(dp394
S'ip1_sp0'
p395
F0.0
ssI10
(dp396
S'ip1_sp0'
p397
F151189440.0
ssI11
(dp398
S'ip1_sp0'
p399
F41319856.0
ssI12
(dp400
S'ip1_sp0'
p401
F442126.96875
sssS'sxx'
p402
(dp403
I0
(dp404
S'ip1_sp0'
p405
F-93530320.0
ssI1
(dp406
S'ip1_sp0'
p407
F249337920.0
ssI2
(dp408
S'ip1_sp0'
p409
F-180659280.0
ssI3
(dp410
S'ip1_sp0'
p411
F160871072.0
ssI4
(dp412
S'ip1_sp0'
p413
F-54632716.0
ssI5
(dp414
S'ip1_sp0'
p415
F179696272.0
ssI6
(dp416
S'ip1_sp0'
p417
F66911996.0
ssI7
(dp418
S'ip1_sp0'
p419
F-266288736.0
ssI8
(dp420
S'ip1_sp0'
p421
F630500.4375
ssI9
(dp422
S'ip1_sp0'
p423
F0.0
ssI10
(dp424
S'ip1_sp0'
p425
F-151189440.0
ssI11
(dp426
S'ip1_sp0'
p427
F41319856.0
ssI12
(dp428
S'ip1_sp0'
p429
F-442126.96875
sssS'sxy'
p430
(dp431
I0
(dp432
S'ip1_sp0'
p433
F0.0
ssI1
(dp434
S'ip1_sp0'
p435
F0.0
ssI2
(dp436
S'ip1_sp0'
p437
F0.0
ssI3
(dp438
S'ip1_sp0'
p439
F0.0
ssI4
(dp440
S'ip1_sp0'
p441
F0.0
ssI5
(dp442
S'ip1_sp0'
p443
F0.0
ssI6
(dp444
S'ip1_sp0'
p445
F0.0
ssI7
(dp446
S'ip1_sp0'
p447
F0.0
ssI8
(dp448
S'ip1_sp0'
p449
F0.0
ssI9
(dp450
S'ip1_sp0'
p451
F0.0
ssI10
(dp452
S'ip1_sp0'
p453
F0.0
ssI11
(dp454
S'ip1_sp0'
p455
F0.0
ssI12
(dp456
S'ip1_sp0'
p457
F0.0
sssS'axes'
p458
(dp459
sS'syy'
p460
(dp461
I0
(dp462
S'ip1_sp0'
p463
F0.0
ssI1
(dp464
S'ip1_sp0'
p465
F0.0
ssI2
(dp466
S'ip1_sp0'
p467
F0.0
ssI3
(dp468
S'ip1_sp0'
p469
F0.0
ssI4
(dp470
S'ip1_sp0'
p471
F0.0
ssI5
(dp472
S'ip1_sp0'
p473
F0.0
ssI6
(dp474
S'ip1_sp0'
p475
F0.0
ssI7
(dp476
S'ip1_sp0'
p477
F0.0
ssI8
(dp478
S'ip1_sp0'
p479
F0.0
ssI9
(dp480
S'ip1_sp0'
p481
F0.0
ssI10
(dp482
S'ip1_sp0'
p483
F0.0
ssI11
(dp484
S'ip1_sp0'
p485
F0.0
ssI12
(dp486
S'ip1_sp0'
p487
F0.0
sssS'smaxp'
p488
(dp489
I0
(dp490
S'ip1_sp0'
p491
F0.0
ssI1
(dp492
S'ip1_sp0'
p493
F249337920.0
ssI2
(dp494
S'ip1_sp0'
p495
F0.0
ssI3
(dp496
S'ip1_sp0'
p497
F160871072.0
ssI4
(dp498
S'ip1_sp0'
p499
F0.0
ssI5
(dp500
S'ip1_sp0'
p501
F179696272.0
ssI6
(dp502
S'ip1_sp0'
p503
F66911996.0
ssI7
(dp504
S'ip1_sp0'
p505
F0.0
ssI8
(dp506
S'ip1_sp0'
p507
F630500.4375
ssI9
(dp508
S'ip1_sp0'
p509
F0.0
ssI10
(dp510
S'ip1_sp0'
p511
F0.0
ssI11
(dp512
S'ip1_sp0'
p513
F41319856.0
ssI12
(dp514
S'ip1_sp0'
p515
F0.0
ssssssS'sections'
p516
(dp517
S'section'
p518
g0
(ccompas_fea.structure.section
TrussSection
p519
g2
Ntp520
Rp521
(dp522
g15
I0
sS'__name__'
p523
S'TrussSection'
p524
sS'name'
p525
g518
sS'geometry'
p526
(dp527
S'Iyy'
p528
I0
sS'J'
p529
I0
sS'A'
p530
F0.001
sS'Ixx'
p531
I0
sS'Ixy'
p532
I0
ssbssS'sets'
p533
(dp534
S'trusses'
p535
g0
(ccompas_fea.structure.set
Set
p536
g2
Ntp537
Rp538
(dp539
S'__name__'
p540
S'Set'
p541
sS'name'
p542
g535
sS'type'
p543
S'element'
p544
sS'selection'
p545
(lp546
I0
aI1
aI2
aI3
aI4
aI5
aI6
aI7
aI8
aI9
aI10
aI11
aI12
asS'index'
p547
I0
sbsS'loads'
p548
g0
(g536
g2
Ntp549
Rp550
(dp551
g540
g541
sg542
g548
sg543
S'node'
p552
sg545
(lp553
I3
aI0
asg547
I2
sbsS'supports'
p554
g0
(g536
g2
Ntp555
Rp556
(dp557
g540
g541
sg542
g554
sg543
g552
sg545
(lp558
I1
aI6
asg547
I1
sbssS'steps'
p559
(dp560
S'bc'
p561
g0
(ccompas_fea.structure.step
GeneralStep
p562
g2
Ntp563
Rp564
(dp565
g15
I0
sS'__name__'
p566
S'GeneralStep'
p567
sS'name'
p568
g561
sS'attr_list'
p569
(lp570
S'name'
p571
aS'increments'
p572
aS'iterations'
p573
aS'factor'
p574
aS'nlgeom'
p575
aS'nlmat'
p576
aS'displacements'
p577
aS'loads'
p578
aS'type'
p579
aS'tolerance'
p580
aS'modify'
p581
asS'increments'
p582
I100
sS'iterations'
p583
I100
sS'tolerance'
p584
F0.01
sS'factor'
p585
F1.0
sS'nlgeom'
p586
I01
sS'nlmat'
p587
I01
sS'displacements'
p588
(lp589
S'pinned'
p590
asS'loads'
p591
(lp592
sS'modify'
p593
I01
sS'type'
p594
S'static'
p595
sbsS'loads'
p596
g0
(g562
g2
Ntp597
Rp598
(dp599
g15
I1
sg566
g567
sg568
g596
sg569
(lp600
g571
ag572
ag573
ag574
ag575
ag576
ag577
ag578
ag579
ag580
ag581
asg582
I100
sg583
I100
sg584
F0.01
sg585
F1.5
sg586
I01
sg587
I01
sg588
(lp601
sg591
(lp602
S'pointloads'
p603
aS'gravity'
p604
asg593
I01
sg594
g595
sbssS'steps_order'
p605
(lp606
S'bc'
p607
aS'loads'
p608
asS'tol'
p609
S'3'
p610
sS'virtual_nodes'
p611
(dp612
sS'virtual_node_index'
p613
(dp614
sS'virtual_elements'
p615
(dp616
sS'virtual_element_index'
p617
(dp618
sb.